; Function Attrs: nounwind uwtable
define void @Java_sun_java2d_x11_X11Renderer_XDrawOval(ptr noundef %0, ptr nocapture noundef readnone %1, i64 noundef %2, i64 noundef %3, i32 noundef %4, i32 noundef %5, i32 noundef %6, i32 noundef %7) local_unnamed_addr #0 {
  %9 = inttoptr i64 %2 to ptr
  %10 = icmp eq i64 %2, 0
  br i1 %10, label %31, label %11

11:                                               ; preds = %8
  %12 = icmp slt i32 %6, 2
  %13 = icmp slt i32 %7, 2
  %or.cond = or i1 %12, %13
  br i1 %or.cond, label %14, label %24

14:                                               ; preds = %11
  %15 = or i32 %7, %6
  %or.cond3 = icmp sgt i32 %15, -1
  br i1 %or.cond3, label %16, label %awt_drawArc.exit

16:                                               ; preds = %14
  %17 = load ptr, ptr @awt_display, align 8
  %18 = getelementptr inbounds i8, ptr %9, i64 88
  %19 = load i64, ptr %18, align 8
  %20 = inttoptr i64 %3 to ptr
  %21 = add nuw nsw i32 %6, 1
  %22 = add nuw nsw i32 %7, 1
  %23 = tail call i32 @XFillRectangle(ptr noundef %17, i64 noundef %19, ptr noundef %20, i32 noundef %4, i32 noundef %5, i32 noundef %21, i32 noundef %22) #10
  br label %awt_drawArc.exit

24:                                               ; preds = %11
  %25 = getelementptr inbounds i8, ptr %9, i64 88
  %26 = load i64, ptr %25, align 8
  %27 = inttoptr i64 %3 to ptr
  %28 = load ptr, ptr @awt_display, align 8
  %sext = shl i64 %26, 32
  %29 = ashr exact i64 %sext, 32
  %30 = tail call i32 @XDrawArc(ptr noundef %28, i64 noundef %29, ptr noundef %27, i32 noundef %4, i32 noundef %5, i32 noundef %6, i32 noundef %7, i32 noundef 0, i32 noundef 23040) #10
  br label %awt_drawArc.exit

awt_drawArc.exit:                                 ; preds = %24, %14, %16
  tail call void @X11SD_DirectRenderNotify(ptr noundef %0, ptr noundef nonnull %9) #10
  br label %31

31:                                               ; preds = %8, %awt_drawArc.exit
  ret void
}